target datalayout = "e-m:e-p270:32:32-p271:32:32-p272:64:64-i64:64-i128:128-f80:128-n8:16:32:64-S128"
target triple = "x86_64-pc-linux-gnu"

%"class.icu_77::LocalPointer.10" = type { %"class.icu_77::LocalPointerBase.11" }
%"class.icu_77::LocalPointerBase.11" = type { ptr }

@_ZN6icu_7734SimpleFilteredBreakIteratorBuilderC1ERKNS_6LocaleER10UErrorCode = unnamed_addr alias void (ptr, ptr, ptr), ptr @_ZN6icu_7734SimpleFilteredBreakIteratorBuilderC2ERKNS_6LocaleER10UErrorCode

; Function Attrs: mustprogress nounwind uwtable
define linkonce_odr void @_ZN6icu_7716LocalPointerBaseINS_28FilteredBreakIteratorBuilderEED2Ev(ptr noundef nonnull align 8 dereferenceable(8) %0) unnamed_addr #1 comdat align 2 {
  %2 = alloca ptr, align 8
  store ptr %0, ptr %2, align 8, !tbaa !119
  ret void
}

; Function Attrs: mustprogress nounwind uwtable
define linkonce_odr void @_ZN6icu_7716LocalPointerBaseINS_28FilteredBreakIteratorBuilderEEC2EPS1_(ptr noundef nonnull align 8 dereferenceable(8) %0, ptr noundef %1) unnamed_addr #1 comdat align 2 {
  %3 = alloca ptr, align 8
  %4 = alloca ptr, align 8
  store ptr %0, ptr %3, align 8, !tbaa !119
  store ptr %1, ptr %4, align 8, !tbaa !70
  %5 = load ptr, ptr %3, align 8
  %6 = getelementptr inbounds nuw %"class.icu_77::LocalPointerBase.11", ptr %5, i32 0, i32 0
  %7 = load ptr, ptr %4, align 8, !tbaa !70
  store ptr %7, ptr %6, align 8, !tbaa !121
  ret void
}

; Function Attrs: mustprogress nounwind uwtable
define linkonce_odr void @_ZN6icu_7712LocalPointerINS_28FilteredBreakIteratorBuilderEED2Ev(ptr noundef nonnull align 8 dereferenceable(8) %0) unnamed_addr #1 comdat align 2 {
  %2 = alloca ptr, align 8
  store ptr %0, ptr %2, align 8, !tbaa !117
  %3 = load ptr, ptr %2, align 8
  %4 = getelementptr inbounds nuw %"class.icu_77::LocalPointerBase.11", ptr %3, i32 0, i32 0
  %5 = load ptr, ptr %4, align 8, !tbaa !121
  %6 = icmp eq ptr %5, null
  br i1 %6, label %11, label %7

7:                                                ; preds = %1
  %8 = load ptr, ptr %5, align 8, !tbaa !10
  %9 = getelementptr inbounds ptr, ptr %8, i64 1
  %10 = load ptr, ptr %9, align 8
  call void %10(ptr noundef nonnull align 8 dereferenceable(8) %5) #13
  br label %11

11:                                               ; preds = %7, %1
  call void @_ZN6icu_7716LocalPointerBaseINS_28FilteredBreakIteratorBuilderEED2Ev(ptr noundef nonnull align 8 dereferenceable(8) %3) #13
  ret void
}

; Function Attrs: mustprogress nounwind uwtable
define linkonce_odr noundef ptr @_ZN6icu_7716LocalPointerBaseINS_28FilteredBreakIteratorBuilderEE6orphanEv(ptr noundef nonnull align 8 dereferenceable(8) %0) #1 comdat align 2 {
  %2 = alloca ptr, align 8
  %3 = alloca ptr, align 8
  store ptr %0, ptr %2, align 8, !tbaa !119
  %4 = load ptr, ptr %2, align 8
  call void @llvm.lifetime.start.p0(i64 8, ptr %3) #13
  %5 = getelementptr inbounds nuw %"class.icu_77::LocalPointerBase.11", ptr %4, i32 0, i32 0
  %6 = load ptr, ptr %5, align 8, !tbaa !121
  store ptr %6, ptr %3, align 8, !tbaa !70
  %7 = getelementptr inbounds nuw %"class.icu_77::LocalPointerBase.11", ptr %4, i32 0, i32 0
  store ptr null, ptr %7, align 8, !tbaa !121
  %8 = load ptr, ptr %3, align 8, !tbaa !70
  call void @llvm.lifetime.end.p0(i64 8, ptr %3) #13
  ret ptr %8
}

; Function Attrs: inlinehint mustprogress nounwind uwtable
define internal noundef signext i8 @_ZL9U_SUCCESS10UErrorCode(i32 noundef %0) #5 {
  %2 = alloca i32, align 4
  store i32 %0, ptr %2, align 4, !tbaa !41
  %3 = load i32, ptr %2, align 4, !tbaa !41
  %4 = icmp sle i32 %3, 0
  %5 = zext i1 %4 to i8
  ret i8 %5
}

; Function Attrs: mustprogress uwtable
define linkonce_odr void @_ZN6icu_7712LocalPointerINS_28FilteredBreakIteratorBuilderEEC2EPS1_R10UErrorCode(ptr noundef nonnull align 8 dereferenceable(8) %0, ptr noundef %1, ptr noundef nonnull align 4 dereferenceable(4) %2) unnamed_addr #2 comdat align 2 {
  %4 = alloca ptr, align 8
  %5 = alloca ptr, align 8
  %6 = alloca ptr, align 8
  store ptr %0, ptr %4, align 8, !tbaa !117
  store ptr %1, ptr %5, align 8, !tbaa !70
  store ptr %2, ptr %6, align 8, !tbaa !40
  %7 = load ptr, ptr %4, align 8
  %8 = load ptr, ptr %5, align 8, !tbaa !70
  call void @_ZN6icu_7716LocalPointerBaseINS_28FilteredBreakIteratorBuilderEEC2EPS1_(ptr noundef nonnull align 8 dereferenceable(8) %7, ptr noundef %8)
  %9 = load ptr, ptr %5, align 8, !tbaa !70
  %10 = icmp eq ptr %9, null
  br i1 %10, label %11, label %18

11:                                               ; preds = %3
  %12 = load ptr, ptr %6, align 8, !tbaa !40
  %13 = load i32, ptr %12, align 4, !tbaa !41
  %14 = call noundef signext i8 @_ZL9U_SUCCESS10UErrorCode(i32 noundef %13)
  %15 = icmp ne i8 %14, 0
  br i1 %15, label %16, label %18

16:                                               ; preds = %11
  %17 = load ptr, ptr %6, align 8, !tbaa !40
  store i32 7, ptr %17, align 4, !tbaa !41
  br label %18

18:                                               ; preds = %16, %11, %3
  ret void
}

; Function Attrs: inlinehint mustprogress nounwind uwtable
define internal noundef signext i8 @_ZL9U_FAILURE10UErrorCode(i32 noundef %0) #5 {
  %2 = alloca i32, align 4
  store i32 %0, ptr %2, align 4, !tbaa !41
  %3 = load i32, ptr %2, align 4, !tbaa !41
  %4 = icmp sgt i32 %3, 0
  %5 = zext i1 %4 to i8
  ret i8 %5
}

; Function Attrs: mustprogress uwtable
define noundef ptr @_ZN6icu_7728FilteredBreakIteratorBuilder14createInstanceERKNS_6LocaleER10UErrorCode(ptr noundef nonnull align 8 dereferenceable(217) %0, ptr noundef nonnull align 4 dereferenceable(4) %1) #2 align 2 personality ptr @__gxx_personality_v0 {
  %3 = alloca ptr, align 8
  %4 = alloca ptr, align 8
  %5 = alloca ptr, align 8
  %6 = alloca %"class.icu_77::LocalPointer.10", align 8
  %7 = alloca ptr, align 8
  %8 = alloca i1, align 1
  %9 = alloca ptr, align 8
  %10 = alloca i32, align 4
  store ptr %0, ptr %4, align 8, !tbaa !72
  store ptr %1, ptr %5, align 8, !tbaa !40
  %11 = load ptr, ptr %5, align 8, !tbaa !40
  %12 = load i32, ptr %11, align 4, !tbaa !41
  %13 = call noundef signext i8 @_ZL9U_FAILURE10UErrorCode(i32 noundef %12)
  %14 = icmp ne i8 %13, 0
  br i1 %14, label %15, label %16

15:                                               ; preds = %2
  store ptr null, ptr %3, align 8
  br label %50

16:                                               ; preds = %2
  call void @llvm.lifetime.start.p0(i64 8, ptr %6) #13
  %17 = call noundef ptr @_ZN6icu_777UMemorynwEm(i64 noundef 48) #13
  %18 = icmp eq ptr %17, null
  store i1 false, ptr %8, align 1
  br i1 %18, label %23, label %19

19:                                               ; preds = %16
  store ptr %17, ptr %7, align 8
  store i1 true, ptr %8, align 1
  %20 = load ptr, ptr %4, align 8, !tbaa !72
  %21 = load ptr, ptr %5, align 8, !tbaa !40
  invoke void @_ZN6icu_7734SimpleFilteredBreakIteratorBuilderC1ERKNS_6LocaleER10UErrorCode(ptr noundef nonnull align 8 dereferenceable(48) %17, ptr noundef nonnull align 8 dereferenceable(217) %20, ptr noundef nonnull align 4 dereferenceable(4) %21)
          to label %22 unwind label %37

22:                                               ; preds = %19
  br label %23

23:                                               ; preds = %22, %16
  %24 = phi ptr [ %17, %22 ], [ null, %16 ]
  %25 = load ptr, ptr %5, align 8, !tbaa !40
  call void @_ZN6icu_7712LocalPointerINS_28FilteredBreakIteratorBuilderEEC2EPS1_R10UErrorCode(ptr noundef nonnull align 8 dereferenceable(8) %6, ptr noundef %24, ptr noundef nonnull align 4 dereferenceable(4) %25)
  %26 = load ptr, ptr %5, align 8, !tbaa !40
  %27 = load i32, ptr %26, align 4, !tbaa !41
  %28 = invoke noundef signext i8 @_ZL9U_SUCCESS10UErrorCode(i32 noundef %27)
          to label %29 unwind label %45

29:                                               ; preds = %23
  %30 = icmp ne i8 %28, 0
  br i1 %30, label %31, label %34

31:                                               ; preds = %29
  %32 = invoke noundef ptr @_ZN6icu_7716LocalPointerBaseINS_28FilteredBreakIteratorBuilderEE6orphanEv(ptr noundef nonnull align 8 dereferenceable(8) %6)
          to label %33 unwind label %45

33:                                               ; preds = %31
  br label %35

34:                                               ; preds = %29
  br label %35

35:                                               ; preds = %34, %33
  %36 = phi ptr [ %32, %33 ], [ null, %34 ]
  store ptr %36, ptr %3, align 8
  call void @_ZN6icu_7712LocalPointerINS_28FilteredBreakIteratorBuilderEED2Ev(ptr noundef nonnull align 8 dereferenceable(8) %6) #13
  call void @llvm.lifetime.end.p0(i64 8, ptr %6) #13
  br label %50

37:                                               ; preds = %19
  %38 = landingpad { ptr, i32 }
          cleanup
  %39 = extractvalue { ptr, i32 } %38, 0
  store ptr %39, ptr %9, align 8
  %40 = extractvalue { ptr, i32 } %38, 1
  store i32 %40, ptr %10, align 4
  %41 = load i1, ptr %8, align 1
  br i1 %41, label %42, label %44

42:                                               ; preds = %37
  %43 = load ptr, ptr %7, align 8
  call void @_ZN6icu_777UMemorydlEPv(ptr noundef %43) #13
  br label %44

44:                                               ; preds = %42, %37
  br label %49

45:                                               ; preds = %31, %23
  %46 = landingpad { ptr, i32 }
          cleanup
  %47 = extractvalue { ptr, i32 } %46, 0
  store ptr %47, ptr %9, align 8
  %48 = extractvalue { ptr, i32 } %46, 1
  store i32 %48, ptr %10, align 4
  call void @_ZN6icu_7712LocalPointerINS_28FilteredBreakIteratorBuilderEED2Ev(ptr noundef nonnull align 8 dereferenceable(8) %6) #13
  br label %49

49:                                               ; preds = %45, %44
  call void @llvm.lifetime.end.p0(i64 8, ptr %6) #13
  br label %52

50:                                               ; preds = %35, %15
  %51 = load ptr, ptr %3, align 8
  ret ptr %51

52:                                               ; preds = %49
  %53 = load ptr, ptr %9, align 8
  %54 = load i32, ptr %10, align 4
  %55 = insertvalue { ptr, i32 } poison, ptr %53, 0
  %56 = insertvalue { ptr, i32 } %55, i32 %54, 1
  resume { ptr, i32 } %56
}