; Function Attrs: mustprogress uwtable
define noundef ptr @_ZN6icu_7728FilteredBreakIteratorBuilder14createInstanceERKNS_6LocaleER10UErrorCode(ptr noundef nonnull align 8 dereferenceable(217) %0, ptr noundef nonnull align 4 dereferenceable(4) %1) local_unnamed_addr #2 align 2 personality ptr @__gxx_personality_v0 {
  %3 = load i32, ptr %1, align 4, !tbaa !28
  %4 = icmp slt i32 %3, 1
  br i1 %4, label %5, label %_ZN6icu_7712LocalPointerINS_28FilteredBreakIteratorBuilderEED2Ev.exit

5:                                                ; preds = %2
  %6 = tail call noundef ptr @_ZN6icu_777UMemorynwEm(i64 noundef 48) #14
  %7 = icmp eq ptr %6, null
  br i1 %7, label %9, label %8

8:                                                ; preds = %5
  invoke void @_ZN6icu_7734SimpleFilteredBreakIteratorBuilderC1ERKNS_6LocaleER10UErrorCode(ptr noundef nonnull align 8 dereferenceable(48) %6, ptr noundef nonnull align 8 dereferenceable(217) %0, ptr noundef nonnull align 4 dereferenceable(4) %1)
          to label %_ZN6icu_7712LocalPointerINS_28FilteredBreakIteratorBuilderEEC2EPS1_R10UErrorCode.exit unwind label %18

9:                                                ; preds = %5
  %10 = load i32, ptr %1, align 4
  %11 = icmp sgt i32 %10, 0
  br i1 %11, label %_ZN6icu_7712LocalPointerINS_28FilteredBreakIteratorBuilderEED2Ev.exit, label %12

12:                                               ; preds = %9
  store i32 7, ptr %1, align 4, !tbaa !28
  br label %_ZN6icu_7712LocalPointerINS_28FilteredBreakIteratorBuilderEED2Ev.exit

_ZN6icu_7712LocalPointerINS_28FilteredBreakIteratorBuilderEEC2EPS1_R10UErrorCode.exit: ; preds = %8
  %.pre = load i32, ptr %1, align 4, !tbaa !28
  %13 = icmp sgt i32 %.pre, 0
  br i1 %13, label %14, label %_ZN6icu_7712LocalPointerINS_28FilteredBreakIteratorBuilderEED2Ev.exit

14:                                               ; preds = %_ZN6icu_7712LocalPointerINS_28FilteredBreakIteratorBuilderEEC2EPS1_R10UErrorCode.exit
  %15 = load ptr, ptr %6, align 8, !tbaa !3
  %16 = getelementptr inbounds nuw i8, ptr %15, i64 8
  %17 = load ptr, ptr %16, align 8
  tail call void %17(ptr noundef nonnull align 8 dereferenceable(8) %6) #14
  br label %_ZN6icu_7712LocalPointerINS_28FilteredBreakIteratorBuilderEED2Ev.exit

18:                                               ; preds = %8
  %19 = landingpad { ptr, i32 }
          cleanup
  tail call void @_ZN6icu_777UMemorydlEPv(ptr noundef nonnull %6) #14
  resume { ptr, i32 } %19

_ZN6icu_7712LocalPointerINS_28FilteredBreakIteratorBuilderEED2Ev.exit: ; preds = %9, %12, %_ZN6icu_7712LocalPointerINS_28FilteredBreakIteratorBuilderEEC2EPS1_R10UErrorCode.exit, %14, %2
  %.0 = phi ptr [ null, %2 ], [ null, %14 ], [ %6, %_ZN6icu_7712LocalPointerINS_28FilteredBreakIteratorBuilderEEC2EPS1_R10UErrorCode.exit ], [ null, %12 ], [ null, %9 ]
  ret ptr %.0
}